; ModuleID = '12/1188.c'
source_filename = "12/1188.c"
target datalayout = "e-m:e-p270:32:32-p271:32:32-p272:64:64-i64:64-f80:128-n8:16:32:64-S128"
target triple = "x86_64-pc-linux-gnu"

@.str = private unnamed_addr constant [3 x i8] c"%d\00", align 1
@.str.1 = private unnamed_addr constant [4 x i8] c"%d\0A\00", align 1

; Function Attrs: noinline nounwind uwtable
define dso_local i32 @main() #0 {
  %1 = alloca i32, align 4
  %2 = alloca i32, align 4
  %3 = alloca i32, align 4
  %4 = alloca i32, align 4
  %5 = alloca [16 x i32], align 16
  %6 = alloca i32, align 4
  %7 = alloca i32, align 4
  store i32 0, i32* %1, align 4
  %8 = bitcast [16 x i32]* %5 to i8*
  call void @llvm.memset.p0i8.i64(i8* align 16 %8, i8 0, i64 64, i1 false)
  store i32 0, i32* %6, align 4
  store i32 0, i32* %7, align 4
  br label %9

9:                                                ; preds = %86, %0
  %10 = getelementptr inbounds [16 x i32], [16 x i32]* %5, i64 0, i64 0
  %11 = call i32 (i8*, ...) @__isoc99_scanf(i8* getelementptr inbounds ([3 x i8], [3 x i8]* @.str, i64 0, i64 0), i32* %10)
  %12 = icmp ne i32 %11, 0
  br i1 %12, label %13, label %17

13:                                               ; preds = %9
  %14 = getelementptr inbounds [16 x i32], [16 x i32]* %5, i64 0, i64 0
  %15 = load i32, i32* %14, align 16
  %16 = icmp ne i32 %15, -1
  br label %17

17:                                               ; preds = %13, %9
  %18 = phi i1 [ false, %9 ], [ %16, %13 ]
  br i1 %18, label %19, label %89

19:                                               ; preds = %17
  store i32 1, i32* %2, align 4
  br label %20

20:                                               ; preds = %38, %19
  %21 = load i32, i32* %2, align 4
  %22 = icmp sle i32 %21, 16
  br i1 %22, label %23, label %41

23:                                               ; preds = %20
  %24 = load i32, i32* %2, align 4
  %25 = sext i32 %24 to i64
  %26 = getelementptr inbounds [16 x i32], [16 x i32]* %5, i64 0, i64 %25
  %27 = call i32 (i8*, ...) @__isoc99_scanf(i8* getelementptr inbounds ([3 x i8], [3 x i8]* @.str, i64 0, i64 0), i32* %26)
  %28 = load i32, i32* %2, align 4
  %29 = sext i32 %28 to i64
  %30 = getelementptr inbounds [16 x i32], [16 x i32]* %5, i64 0, i64 %29
  %31 = load i32, i32* %30, align 4
  %32 = icmp ne i32 %31, 0
  br i1 %32, label %33, label %36

33:                                               ; preds = %23
  %34 = load i32, i32* %6, align 4
  %35 = add nsw i32 %34, 1
  store i32 %35, i32* %6, align 4
  br label %37

36:                                               ; preds = %23
  br label %41

37:                                               ; preds = %33
  br label %38

38:                                               ; preds = %37
  %39 = load i32, i32* %2, align 4
  %40 = add nsw i32 %39, 1
  store i32 %40, i32* %2, align 4
  br label %20

41:                                               ; preds = %36, %20
  store i32 0, i32* %2, align 4
  br label %42

42:                                               ; preds = %83, %41
  %43 = load i32, i32* %2, align 4
  %44 = load i32, i32* %6, align 4
  %45 = icmp sle i32 %43, %44
  br i1 %45, label %46, label %86

46:                                               ; preds = %42
  %47 = load i32, i32* %2, align 4
  %48 = add nsw i32 %47, 1
  store i32 %48, i32* %3, align 4
  br label %49

49:                                               ; preds = %79, %46
  %50 = load i32, i32* %3, align 4
  %51 = load i32, i32* %6, align 4
  %52 = icmp sle i32 %50, %51
  br i1 %52, label %53, label %82

53:                                               ; preds = %49
  %54 = load i32, i32* %2, align 4
  %55 = sext i32 %54 to i64
  %56 = getelementptr inbounds [16 x i32], [16 x i32]* %5, i64 0, i64 %55
  %57 = load i32, i32* %56, align 4
  %58 = load i32, i32* %3, align 4
  %59 = sext i32 %58 to i64
  %60 = getelementptr inbounds [16 x i32], [16 x i32]* %5, i64 0, i64 %59
  %61 = load i32, i32* %60, align 4
  %62 = mul nsw i32 2, %61
  %63 = icmp eq i32 %57, %62
  br i1 %63, label %75, label %64

64:                                               ; preds = %53
  %65 = load i32, i32* %3, align 4
  %66 = sext i32 %65 to i64
  %67 = getelementptr inbounds [16 x i32], [16 x i32]* %5, i64 0, i64 %66
  %68 = load i32, i32* %67, align 4
  %69 = load i32, i32* %2, align 4
  %70 = sext i32 %69 to i64
  %71 = getelementptr inbounds [16 x i32], [16 x i32]* %5, i64 0, i64 %70
  %72 = load i32, i32* %71, align 4
  %73 = mul nsw i32 %72, 2
  %74 = icmp eq i32 %68, %73
  br i1 %74, label %75, label %78

75:                                               ; preds = %64, %53
  %76 = load i32, i32* %7, align 4
  %77 = add nsw i32 %76, 1
  store i32 %77, i32* %7, align 4
  br label %78

78:                                               ; preds = %75, %64
  br label %79

79:                                               ; preds = %78
  %80 = load i32, i32* %3, align 4
  %81 = add nsw i32 %80, 1
  store i32 %81, i32* %3, align 4
  br label %49

82:                                               ; preds = %49
  br label %83

83:                                               ; preds = %82
  %84 = load i32, i32* %2, align 4
  %85 = add nsw i32 %84, 1
  store i32 %85, i32* %2, align 4
  br label %42

86:                                               ; preds = %42
  %87 = load i32, i32* %7, align 4
  %88 = call i32 (i8*, ...) @printf(i8* getelementptr inbounds ([4 x i8], [4 x i8]* @.str.1, i64 0, i64 0), i32 %87)
  store i32 0, i32* %6, align 4
  store i32 0, i32* %7, align 4
  br label %9

89:                                               ; preds = %17
  ret i32 0
}

; Function Attrs: argmemonly nounwind willreturn
declare void @llvm.memset.p0i8.i64(i8* nocapture writeonly, i8, i64, i1 immarg) #1

declare dso_local i32 @__isoc99_scanf(i8*, ...) #2

declare dso_local i32 @printf(i8*, ...) #2


!llvm.module.flags = !{!0}
!llvm.ident = !{!1}

!0 = !{i32 1, !"wchar_size", i32 4}
!1 = !{!"clang version 10.0.0-4ubuntu1 "}
